target datalayout = "e-m:e-p270:32:32-p271:32:32-p272:64:64-i64:64-i128:128-f80:128-n8:16:32:64-S128"
target triple = "x86_64-pc-linux-gnu"

%"struct.std::atomic" = type { %"struct.std::__atomic_base" }
%"struct.std::__atomic_base" = type { i64 }
%"class.grpc_core::PolymorphicRefCount" = type { ptr }
%"class.grpc_core::WeakRefCountedPtr" = type { ptr }
%"class.grpc_core::DualRefCounted.9" = type { %"class.grpc_core::PolymorphicRefCount", %"struct.std::atomic" }
%"class.grpc_core::Timestamp" = type { i64 }
%"class.grpc_core::Loop" = type <{ %"class.grpc_core::promise_detail::RepeatedPromiseFactory", %union.anon.440, i8, [7 x i8] }>
%"class.grpc_core::promise_detail::RepeatedPromiseFactory" = type { %class.anon.439 }
%class.anon.439 = type { %"class.grpc_core::WeakRefCountedPtr" }
%union.anon.440 = type { %"class.grpc_core::promise_detail::PromiseLike" }
%"class.grpc_core::promise_detail::PromiseLike" = type { %"class.grpc_core::promise_detail::TrySeq" }
%"class.grpc_core::promise_detail::TrySeq" = type { %"struct.grpc_core::promise_detail::SeqState" }
%"struct.grpc_core::promise_detail::SeqState" = type <{ %union.anon.441, i8, [7 x i8] }>
%union.anon.441 = type { %"struct.grpc_core::promise_detail::SeqState<grpc_core::promise_detail::TrySeqTraits, grpc_core::Sleep, (lambda at /home/dtcxzyw/WorkSpace/Projects/compilers/llvm-opt-benchmark/bench/grpc/grpc/src/core/client_channel/client_channel.cc:1337:19)>::Running0" }
%"struct.grpc_core::promise_detail::SeqState<grpc_core::promise_detail::TrySeqTraits, grpc_core::Sleep, (lambda at /home/dtcxzyw/WorkSpace/Projects/compilers/llvm-opt-benchmark/bench/grpc/grpc/src/core/client_channel/client_channel.cc:1337:19)>::Running0" = type { %"class.grpc_core::promise_detail::PromiseLike.442", %"class.grpc_core::promise_detail::OncePromiseFactory" }
%"class.grpc_core::promise_detail::PromiseLike.442" = type { %"class.grpc_core::Sleep" }
%"class.grpc_core::Sleep" = type { %"class.grpc_core::Timestamp", ptr }
%"class.grpc_core::promise_detail::OncePromiseFactory" = type { %class.anon.443 }
%class.anon.443 = type { %"class.grpc_core::WeakRefCountedPtr" }
%"class.grpc_core::promise_detail::PromiseLike.444" = type { %class.anon.443 }
%"class.grpc_core::promise_detail::OncePromiseFactory.1114" = type { %"class.grpc_core::Loop.base", [7 x i8] }
%"class.grpc_core::Loop.base" = type <{ %"class.grpc_core::promise_detail::RepeatedPromiseFactory", %union.anon.440, i8 }>

; Function Attrs: inlinehint mustprogress nounwind uwtable
define internal void @"_ZZZN9grpc_core13ClientChannel14StartIdleTimerEvENK3$_0clEvENUlvE_D2Ev"(ptr noundef nonnull align 8 dereferenceable(8) %0) unnamed_addr #15 align 2 {
  %2 = alloca ptr, align 8
  store ptr %0, ptr %2, align 8, !tbaa !191
  %3 = load ptr, ptr %2, align 8
  %4 = getelementptr inbounds nuw %class.anon.443, ptr %3, i32 0, i32 0
  call void @_ZN9grpc_core17WeakRefCountedPtrINS_13ClientChannelEED2Ev(ptr noundef nonnull align 8 dereferenceable(8) %4) #3
  ret void
}

; Function Attrs: inlinehint mustprogress nounwind uwtable
define internal void @"_ZN9grpc_core14promise_detail18OncePromiseFactoryIvZZNS_13ClientChannel14StartIdleTimerEvENK3$_0clEvEUlvE_ED2Ev"(ptr noundef nonnull align 8 dereferenceable(8) %0) unnamed_addr #15 align 2 {
  %2 = alloca ptr, align 8
  store ptr %0, ptr %2, align 8, !tbaa !2944
  %3 = load ptr, ptr %2, align 8
  %4 = getelementptr inbounds nuw %"class.grpc_core::promise_detail::OncePromiseFactory", ptr %3, i32 0, i32 0
  call void @"_ZZZN9grpc_core13ClientChannel14StartIdleTimerEvENK3$_0clEvENUlvE_D2Ev"(ptr noundef nonnull align 8 dereferenceable(8) %4) #3
  ret void
}

; Function Attrs: inlinehint mustprogress nounwind uwtable
define internal void @"_ZN9grpc_core14promise_detail11PromiseLikeIZZNS_13ClientChannel14StartIdleTimerEvENK3$_0clEvEUlvE_vED2Ev"(ptr noundef nonnull align 8 dereferenceable(8) %0) unnamed_addr #15 align 2 {
  %2 = alloca ptr, align 8
  store ptr %0, ptr %2, align 8, !tbaa !2942
  %3 = load ptr, ptr %2, align 8
  %4 = getelementptr inbounds nuw %"class.grpc_core::promise_detail::PromiseLike.444", ptr %3, i32 0, i32 0
  call void @"_ZZZN9grpc_core13ClientChannel14StartIdleTimerEvENK3$_0clEvENUlvE_D2Ev"(ptr noundef nonnull align 8 dereferenceable(8) %4) #3
  ret void
}

; Function Attrs: inlinehint mustprogress nounwind uwtable
define linkonce_odr void @_ZN9grpc_core14promise_detail11PromiseLikeINS_5SleepEvED2Ev(ptr noundef nonnull align 8 dereferenceable(16) %0) unnamed_addr #15 comdat align 2 {
  %2 = alloca ptr, align 8
  store ptr %0, ptr %2, align 8, !tbaa !2940
  %3 = load ptr, ptr %2, align 8
  %4 = getelementptr inbounds nuw %"class.grpc_core::promise_detail::PromiseLike.442", ptr %3, i32 0, i32 0
  call void @_ZN9grpc_core5SleepD1Ev(ptr noundef nonnull align 8 dereferenceable(16) %4) #3
  ret void
}

; Function Attrs: mustprogress nounwind uwtable
define linkonce_odr void @_ZNK9grpc_core11UnrefDeleteclINS_24UnstartedCallDestinationEEEvPT_(ptr noundef nonnull align 1 dereferenceable(1) %0, ptr noundef %1) #5 comdat align 2 {
  %3 = alloca ptr, align 8
  %4 = alloca ptr, align 8
  store ptr %0, ptr %3, align 8, !tbaa !742
  store ptr %1, ptr %4, align 8, !tbaa !1513
  %5 = load ptr, ptr %4, align 8, !tbaa !1513
  %6 = icmp eq ptr %5, null
  br i1 %6, label %11, label %7

7:                                                ; preds = %2
  %8 = load ptr, ptr %5, align 8, !tbaa !12
  %9 = getelementptr inbounds ptr, ptr %8, i64 1
  %10 = load ptr, ptr %9, align 8
  call void %10(ptr noundef nonnull align 8 dereferenceable(16) %5) #3
  br label %11

11:                                               ; preds = %7, %2
  ret void
}

; Function Attrs: alwaysinline mustprogress nounwind uwtable
define linkonce_odr noundef i64 @_ZNSt13__atomic_baseImE9fetch_subEmSt12memory_order(ptr noundef nonnull align 8 dereferenceable(8) %0, i64 noundef %1, i32 noundef %2) #18 comdat align 2 {
  %4 = alloca ptr, align 8
  %5 = alloca i64, align 8
  %6 = alloca i32, align 4
  %7 = alloca i64, align 8
  %8 = alloca i64, align 8
  store ptr %0, ptr %4, align 8, !tbaa !658
  store i64 %1, ptr %5, align 8, !tbaa !246
  store i32 %2, ptr %6, align 4, !tbaa !646
  %9 = load ptr, ptr %4, align 8
  %10 = getelementptr inbounds nuw %"struct.std::__atomic_base", ptr %9, i32 0, i32 0
  %11 = load i32, ptr %6, align 4, !tbaa !646
  %12 = load i64, ptr %5, align 8, !tbaa !246
  store i64 %12, ptr %7, align 8, !tbaa !246
  switch i32 %11, label %13 [
    i32 1, label %16
    i32 2, label %16
    i32 3, label %19
    i32 4, label %22
    i32 5, label %25
  ]

13:                                               ; preds = %3
  %14 = load i64, ptr %7, align 8
  %15 = atomicrmw sub ptr %10, i64 %14 monotonic, align 8
  store i64 %15, ptr %8, align 8
  br label %28

16:                                               ; preds = %3, %3
  %17 = load i64, ptr %7, align 8
  %18 = atomicrmw sub ptr %10, i64 %17 acquire, align 8
  store i64 %18, ptr %8, align 8
  br label %28

19:                                               ; preds = %3
  %20 = load i64, ptr %7, align 8
  %21 = atomicrmw sub ptr %10, i64 %20 release, align 8
  store i64 %21, ptr %8, align 8
  br label %28

22:                                               ; preds = %3
  %23 = load i64, ptr %7, align 8
  %24 = atomicrmw sub ptr %10, i64 %23 acq_rel, align 8
  store i64 %24, ptr %8, align 8
  br label %28

25:                                               ; preds = %3
  %26 = load i64, ptr %7, align 8
  %27 = atomicrmw sub ptr %10, i64 %26 seq_cst, align 8
  store i64 %27, ptr %8, align 8
  br label %28

28:                                               ; preds = %25, %22, %19, %16, %13
  %29 = load i64, ptr %8, align 8, !tbaa !246
  ret i64 %29
}

; Function Attrs: mustprogress nounwind uwtable
define linkonce_odr noundef i64 @_ZN9grpc_core14DualRefCountedINS_24UnstartedCallDestinationENS_19PolymorphicRefCountENS_11UnrefDeleteEE11MakeRefPairEjj(i32 noundef %0, i32 noundef %1) #5 comdat align 2 {
  %3 = alloca i32, align 4
  %4 = alloca i32, align 4
  store i32 %0, ptr %3, align 4, !tbaa !129
  store i32 %1, ptr %4, align 4, !tbaa !129
  %5 = load i32, ptr %3, align 4, !tbaa !129
  %6 = zext i32 %5 to i64
  %7 = shl i64 %6, 32
  %8 = load i32, ptr %4, align 4, !tbaa !129
  %9 = zext i32 %8 to i64
  %10 = add i64 %7, %9
  ret i64 %10
}

; Function Attrs: alwaysinline mustprogress nounwind uwtable
define internal void @"_ZN9grpc_core8DestructINS_14promise_detail18OncePromiseFactoryIvZZNS_13ClientChannel14StartIdleTimerEvENK3$_0clEvEUlvE_EEEEvPT_"(ptr noundef %0) #18 {
  %2 = alloca ptr, align 8
  store ptr %0, ptr %2, align 8, !tbaa !2944
  %3 = load ptr, ptr %2, align 8, !tbaa !2944
  call void @"_ZN9grpc_core14promise_detail18OncePromiseFactoryIvZZNS_13ClientChannel14StartIdleTimerEvENK3$_0clEvEUlvE_ED2Ev"(ptr noundef nonnull align 8 dereferenceable(8) %3) #3
  ret void
}

; Function Attrs: alwaysinline mustprogress nounwind uwtable
define internal void @"_ZN9grpc_core8DestructINS_14promise_detail11PromiseLikeIZZNS_13ClientChannel14StartIdleTimerEvENK3$_0clEvEUlvE_vEEEEvPT_"(ptr noundef %0) #18 {
  %2 = alloca ptr, align 8
  store ptr %0, ptr %2, align 8, !tbaa !2942
  %3 = load ptr, ptr %2, align 8, !tbaa !2942
  call void @"_ZN9grpc_core14promise_detail11PromiseLikeIZZNS_13ClientChannel14StartIdleTimerEvENK3$_0clEvEUlvE_vED2Ev"(ptr noundef nonnull align 8 dereferenceable(8) %3) #3
  ret void
}

; Function Attrs: alwaysinline mustprogress nounwind uwtable
define linkonce_odr void @_ZN9grpc_core8DestructINS_14promise_detail11PromiseLikeINS_5SleepEvEEEEvPT_(ptr noundef %0) #18 comdat {
  %2 = alloca ptr, align 8
  store ptr %0, ptr %2, align 8, !tbaa !2940
  %3 = load ptr, ptr %2, align 8, !tbaa !2940
  call void @_ZN9grpc_core14promise_detail11PromiseLikeINS_5SleepEvED2Ev(ptr noundef nonnull align 8 dereferenceable(16) %3) #3
  ret void
}

; Function Attrs: mustprogress uwtable
define linkonce_odr void @_ZN9grpc_core14DualRefCountedINS_24UnstartedCallDestinationENS_19PolymorphicRefCountENS_11UnrefDeleteEE9WeakUnrefEv(ptr noundef nonnull align 8 dereferenceable(16) %0) #4 comdat align 2 {
  %2 = alloca ptr, align 8
  %3 = alloca i64, align 8
  store ptr %0, ptr %2, align 8, !tbaa !355
  %4 = load ptr, ptr %2, align 8
  call void @llvm.lifetime.start.p0(i64 8, ptr %3) #3
  %5 = getelementptr inbounds nuw %"class.grpc_core::DualRefCounted.9", ptr %4, i32 0, i32 1
  %6 = call noundef i64 @_ZN9grpc_core14DualRefCountedINS_24UnstartedCallDestinationENS_19PolymorphicRefCountENS_11UnrefDeleteEE11MakeRefPairEjj(i32 noundef 0, i32 noundef 1)
  %7 = call noundef i64 @_ZNSt13__atomic_baseImE9fetch_subEmSt12memory_order(ptr noundef nonnull align 8 dereferenceable(8) %5, i64 noundef %6, i32 noundef 4) #3
  store i64 %7, ptr %3, align 8, !tbaa !246
  %8 = load i64, ptr %3, align 8, !tbaa !246
  %9 = call noundef i64 @_ZN9grpc_core14DualRefCountedINS_24UnstartedCallDestinationENS_19PolymorphicRefCountENS_11UnrefDeleteEE11MakeRefPairEjj(i32 noundef 0, i32 noundef 1)
  %10 = icmp eq i64 %8, %9
  %11 = zext i1 %10 to i64
  %12 = call i64 @llvm.expect.i64(i64 %11, i64 0)
  %13 = icmp ne i64 %12, 0
  br i1 %13, label %14, label %15

14:                                               ; preds = %1
  call void @_ZNK9grpc_core11UnrefDeleteclINS_24UnstartedCallDestinationEEEvPT_(ptr noundef nonnull align 1 dereferenceable(1) %4, ptr noundef %4)
  br label %15

15:                                               ; preds = %14, %1
  call void @llvm.lifetime.end.p0(i64 8, ptr %3) #3
  ret void
}

; Function Attrs: alwaysinline mustprogress nounwind uwtable
define internal void @"_ZN9grpc_core14promise_detail8SeqStateINS0_12TrySeqTraitsENS_5SleepEJZZNS_13ClientChannel14StartIdleTimerEvENK3$_0clEvEUlvE_EED2Ev"(ptr noundef nonnull align 8 dereferenceable(25) %0) unnamed_addr #18 align 2 personality ptr @__gxx_personality_v0 {
  %2 = alloca ptr, align 8
  store ptr %0, ptr %2, align 8, !tbaa !2936
  %3 = load ptr, ptr %2, align 8
  %4 = getelementptr inbounds nuw %"struct.grpc_core::promise_detail::SeqState", ptr %3, i32 0, i32 1
  %5 = load i8, ptr %4, align 8, !tbaa !2938
  switch i8 %5, label %13 [
    i8 0, label %6
    i8 1, label %10
  ]

6:                                                ; preds = %1
  %7 = getelementptr inbounds nuw %"struct.grpc_core::promise_detail::SeqState", ptr %3, i32 0, i32 0
  %8 = getelementptr inbounds nuw %"struct.grpc_core::promise_detail::SeqState<grpc_core::promise_detail::TrySeqTraits, grpc_core::Sleep, (lambda at /home/dtcxzyw/WorkSpace/Projects/compilers/llvm-opt-benchmark/bench/grpc/grpc/src/core/client_channel/client_channel.cc:1337:19)>::Running0", ptr %7, i32 0, i32 0
  invoke void @_ZN9grpc_core8DestructINS_14promise_detail11PromiseLikeINS_5SleepEvEEEEvPT_(ptr noundef %8)
          to label %9 unwind label %18

9:                                                ; preds = %6
  br label %14

10:                                               ; preds = %1
  %11 = getelementptr inbounds nuw %"struct.grpc_core::promise_detail::SeqState", ptr %3, i32 0, i32 0
  invoke void @"_ZN9grpc_core8DestructINS_14promise_detail11PromiseLikeIZZNS_13ClientChannel14StartIdleTimerEvENK3$_0clEvEUlvE_vEEEEvPT_"(ptr noundef %11)
          to label %12 unwind label %18

12:                                               ; preds = %10
  br label %17

13:                                               ; preds = %1
  br label %14

14:                                               ; preds = %13, %9
  %15 = getelementptr inbounds nuw %"struct.grpc_core::promise_detail::SeqState", ptr %3, i32 0, i32 0
  %16 = getelementptr inbounds nuw %"struct.grpc_core::promise_detail::SeqState<grpc_core::promise_detail::TrySeqTraits, grpc_core::Sleep, (lambda at /home/dtcxzyw/WorkSpace/Projects/compilers/llvm-opt-benchmark/bench/grpc/grpc/src/core/client_channel/client_channel.cc:1337:19)>::Running0", ptr %15, i32 0, i32 1
  invoke void @"_ZN9grpc_core8DestructINS_14promise_detail18OncePromiseFactoryIvZZNS_13ClientChannel14StartIdleTimerEvENK3$_0clEvEUlvE_EEEEvPT_"(ptr noundef %16)
          to label %17 unwind label %18

17:                                               ; preds = %12, %14
  ret void

18:                                               ; preds = %14, %10, %6
  %19 = landingpad { ptr, i32 }
          catch ptr null
  %20 = extractvalue { ptr, i32 } %19, 0
  call void @__clang_call_terminate(ptr %20) #36
  unreachable
}

; Function Attrs: mustprogress nounwind uwtable
define linkonce_odr void @_ZN9grpc_core17WeakRefCountedPtrINS_13ClientChannelEED2Ev(ptr noundef nonnull align 8 dereferenceable(8) %0) unnamed_addr #5 comdat align 2 personality ptr @__gxx_personality_v0 {
  %2 = alloca ptr, align 8
  store ptr %0, ptr %2, align 8, !tbaa !8
  %3 = load ptr, ptr %2, align 8
  %4 = getelementptr inbounds nuw %"class.grpc_core::WeakRefCountedPtr", ptr %3, i32 0, i32 0
  %5 = load ptr, ptr %4, align 8, !tbaa !139
  %6 = icmp ne ptr %5, null
  br i1 %6, label %7, label %11

7:                                                ; preds = %1
  %8 = getelementptr inbounds nuw %"class.grpc_core::WeakRefCountedPtr", ptr %3, i32 0, i32 0
  %9 = load ptr, ptr %8, align 8, !tbaa !139
  invoke void @_ZN9grpc_core14DualRefCountedINS_24UnstartedCallDestinationENS_19PolymorphicRefCountENS_11UnrefDeleteEE9WeakUnrefEv(ptr noundef nonnull align 8 dereferenceable(16) %9)
          to label %10 unwind label %12

10:                                               ; preds = %7
  br label %11

11:                                               ; preds = %10, %1
  ret void

12:                                               ; preds = %7
  %13 = landingpad { ptr, i32 }
          catch ptr null
  %14 = extractvalue { ptr, i32 } %13, 0
  call void @__clang_call_terminate(ptr %14) #36
  unreachable
}

; Function Attrs: inlinehint mustprogress nounwind uwtable
define internal void @"_ZN9grpc_core14promise_detail6TrySeqINS_5SleepEJZZNS_13ClientChannel14StartIdleTimerEvENK3$_0clEvEUlvE_EED2Ev"(ptr noundef nonnull align 8 dereferenceable(32) %0) unnamed_addr #15 align 2 {
  %2 = alloca ptr, align 8
  store ptr %0, ptr %2, align 8, !tbaa !2934
  %3 = load ptr, ptr %2, align 8
  %4 = getelementptr inbounds nuw %"class.grpc_core::promise_detail::TrySeq", ptr %3, i32 0, i32 0
  call void @"_ZN9grpc_core14promise_detail8SeqStateINS0_12TrySeqTraitsENS_5SleepEJZZNS_13ClientChannel14StartIdleTimerEvENK3$_0clEvEUlvE_EED2Ev"(ptr noundef nonnull align 8 dereferenceable(25) %4) #3
  ret void
}

; Function Attrs: inlinehint mustprogress nounwind uwtable
define internal void @"_ZZN9grpc_core13ClientChannel14StartIdleTimerEvEN3$_0D2Ev"(ptr noundef nonnull align 8 dereferenceable(8) %0) unnamed_addr #15 align 2 {
  %2 = alloca ptr, align 8
  store ptr %0, ptr %2, align 8, !tbaa !191
  %3 = load ptr, ptr %2, align 8
  %4 = getelementptr inbounds nuw %class.anon.439, ptr %3, i32 0, i32 0
  call void @_ZN9grpc_core17WeakRefCountedPtrINS_13ClientChannelEED2Ev(ptr noundef nonnull align 8 dereferenceable(8) %4) #3
  ret void
}

; Function Attrs: inlinehint mustprogress nounwind uwtable
define internal void @"_ZN9grpc_core14promise_detail11PromiseLikeINS0_6TrySeqINS_5SleepEJZZNS_13ClientChannel14StartIdleTimerEvENK3$_0clEvEUlvE_EEEvED2Ev"(ptr noundef nonnull align 8 dereferenceable(32) %0) unnamed_addr #15 align 2 {
  %2 = alloca ptr, align 8
  store ptr %0, ptr %2, align 8, !tbaa !2932
  %3 = load ptr, ptr %2, align 8
  %4 = getelementptr inbounds nuw %"class.grpc_core::promise_detail::PromiseLike", ptr %3, i32 0, i32 0
  call void @"_ZN9grpc_core14promise_detail6TrySeqINS_5SleepEJZZNS_13ClientChannel14StartIdleTimerEvENK3$_0clEvEUlvE_EED2Ev"(ptr noundef nonnull align 8 dereferenceable(32) %4) #3
  ret void
}

; Function Attrs: noinline noreturn nounwind uwtable
define linkonce_odr hidden void @__clang_call_terminate(ptr noundef %0) #13 comdat {
  %2 = call ptr @__cxa_begin_catch(ptr %0) #3
  call void @_ZSt9terminatev() #36
  unreachable
}

; Function Attrs: inlinehint mustprogress nounwind uwtable
define internal void @"_ZN9grpc_core14promise_detail22RepeatedPromiseFactoryIvZNS_13ClientChannel14StartIdleTimerEvE3$_0ED2Ev"(ptr noundef nonnull align 8 dereferenceable(8) %0) unnamed_addr #15 align 2 {
  %2 = alloca ptr, align 8
  store ptr %0, ptr %2, align 8, !tbaa !2930
  %3 = load ptr, ptr %2, align 8
  %4 = getelementptr inbounds nuw %"class.grpc_core::promise_detail::RepeatedPromiseFactory", ptr %3, i32 0, i32 0
  call void @"_ZZN9grpc_core13ClientChannel14StartIdleTimerEvEN3$_0D2Ev"(ptr noundef nonnull align 8 dereferenceable(8) %4) #3
  ret void
}

; Function Attrs: alwaysinline mustprogress nounwind uwtable
define internal void @"_ZN9grpc_core8DestructINS_14promise_detail11PromiseLikeINS1_6TrySeqINS_5SleepEJZZNS_13ClientChannel14StartIdleTimerEvENK3$_0clEvEUlvE_EEEvEEEEvPT_"(ptr noundef %0) #18 {
  %2 = alloca ptr, align 8
  store ptr %0, ptr %2, align 8, !tbaa !2932
  %3 = load ptr, ptr %2, align 8, !tbaa !2932
  call void @"_ZN9grpc_core14promise_detail11PromiseLikeINS0_6TrySeqINS_5SleepEJZZNS_13ClientChannel14StartIdleTimerEvENK3$_0clEvEUlvE_EEEvED2Ev"(ptr noundef nonnull align 8 dereferenceable(32) %3) #3
  ret void
}

; Function Attrs: alwaysinline mustprogress nounwind uwtable
define internal void @"_ZN9grpc_core4LoopIZNS_13ClientChannel14StartIdleTimerEvE3$_0ED2Ev"(ptr noundef nonnull align 8 dereferenceable(41) %0) unnamed_addr #18 align 2 personality ptr @__gxx_personality_v0 {
  %2 = alloca ptr, align 8
  store ptr %0, ptr %2, align 8, !tbaa !572
  %3 = load ptr, ptr %2, align 8
  %4 = getelementptr inbounds nuw %"class.grpc_core::Loop", ptr %3, i32 0, i32 2
  %5 = load i8, ptr %4, align 8, !tbaa !574, !range !232, !noundef !233
  %6 = trunc i8 %5 to i1
  br i1 %6, label %7, label %10

7:                                                ; preds = %1
  %8 = getelementptr inbounds nuw %"class.grpc_core::Loop", ptr %3, i32 0, i32 1
  invoke void @"_ZN9grpc_core8DestructINS_14promise_detail11PromiseLikeINS1_6TrySeqINS_5SleepEJZZNS_13ClientChannel14StartIdleTimerEvENK3$_0clEvEUlvE_EEEvEEEEvPT_"(ptr noundef %8)
          to label %9 unwind label %12

9:                                                ; preds = %7
  br label %10

10:                                               ; preds = %9, %1
  %11 = getelementptr inbounds nuw %"class.grpc_core::Loop", ptr %3, i32 0, i32 0
  call void @"_ZN9grpc_core14promise_detail22RepeatedPromiseFactoryIvZNS_13ClientChannel14StartIdleTimerEvE3$_0ED2Ev"(ptr noundef nonnull align 8 dereferenceable(8) %11) #3
  ret void

12:                                               ; preds = %7
  %13 = landingpad { ptr, i32 }
          catch ptr null
  %14 = extractvalue { ptr, i32 } %13, 0
  call void @__clang_call_terminate(ptr %14) #36
  unreachable
}

; Function Attrs: inlinehint mustprogress nounwind uwtable
define internal void @"_ZN9grpc_core14promise_detail18OncePromiseFactoryIvNS_4LoopIZNS_13ClientChannel14StartIdleTimerEvE3$_0EEED2Ev"(ptr noundef nonnull align 8 dereferenceable(41) %0) unnamed_addr #15 align 2 {
  %2 = alloca ptr, align 8
  store ptr %0, ptr %2, align 8, !tbaa !2974
  %3 = load ptr, ptr %2, align 8
  %4 = getelementptr inbounds nuw %"class.grpc_core::promise_detail::OncePromiseFactory.1114", ptr %3, i32 0, i32 0
  call void @"_ZN9grpc_core4LoopIZNS_13ClientChannel14StartIdleTimerEvE3$_0ED2Ev"(ptr noundef nonnull align 8 dereferenceable(41) %4) #3
  ret void
}