; Function Attrs: inlinehint mustprogress nounwind uwtable
define internal fastcc void @"_ZN9grpc_core14promise_detail18OncePromiseFactoryIvNS_4LoopIZNS_13ClientChannel14StartIdleTimerEvE3$_0EEED2Ev"(ptr noundef nonnull align 8 dereferenceable(41) %0) unnamed_addr #16 align 2 personality ptr @__gxx_personality_v0 {
  %2 = getelementptr inbounds nuw i8, ptr %0, i64 40
  %3 = load i8, ptr %2, align 8, !tbaa !618, !range !207, !noundef !208
  %4 = trunc nuw i8 %3 to i1
  br i1 %4, label %5, label %"_ZN9grpc_core4LoopIZNS_13ClientChannel14StartIdleTimerEvE3$_0ED2Ev.exit"

5:                                                ; preds = %1
  %6 = getelementptr inbounds nuw i8, ptr %0, i64 8
  %7 = getelementptr inbounds nuw i8, ptr %0, i64 32
  %8 = load i8, ptr %7, align 8, !tbaa !625
  switch i8 %8, label %15 [
    i8 0, label %9
    i8 1, label %10
  ]

9:                                                ; preds = %5
  tail call void @_ZN9grpc_core5SleepD1Ev(ptr noundef nonnull align 8 dereferenceable(32) %6) #42
  br label %15

10:                                               ; preds = %5
  %.val.i.i = load ptr, ptr %6, align 8, !tbaa !10
  %.not.i.i.i.i.i = icmp eq ptr %.val.i.i, null
  br i1 %.not.i.i.i.i.i, label %"_ZN9grpc_core4LoopIZNS_13ClientChannel14StartIdleTimerEvE3$_0ED2Ev.exit", label %11

11:                                               ; preds = %10
  %12 = getelementptr inbounds nuw i8, ptr %.val.i.i, i64 8
  %13 = atomicrmw sub ptr %12, i64 1 acq_rel, align 8
  %14 = icmp eq i64 %13, 1
  br i1 %14, label %"_ZN9grpc_core14promise_detail8SeqStateINS0_12TrySeqTraitsENS_5SleepEJZZNS_13ClientChannel14StartIdleTimerEvENK3$_0clEvEUlvE_EED2Ev.exit.sink.split.i.i", label %"_ZN9grpc_core4LoopIZNS_13ClientChannel14StartIdleTimerEvE3$_0ED2Ev.exit", !prof !26

15:                                               ; preds = %9, %5
  %16 = getelementptr inbounds nuw i8, ptr %0, i64 24
  %.val1.i.i = load ptr, ptr %16, align 8, !tbaa !10
  %.not.i.i.i2.i.i = icmp eq ptr %.val1.i.i, null
  br i1 %.not.i.i.i2.i.i, label %"_ZN9grpc_core4LoopIZNS_13ClientChannel14StartIdleTimerEvE3$_0ED2Ev.exit", label %17

17:                                               ; preds = %15
  %18 = getelementptr inbounds nuw i8, ptr %.val1.i.i, i64 8
  %19 = atomicrmw sub ptr %18, i64 1 acq_rel, align 8
  %20 = icmp eq i64 %19, 1
  br i1 %20, label %"_ZN9grpc_core14promise_detail8SeqStateINS0_12TrySeqTraitsENS_5SleepEJZZNS_13ClientChannel14StartIdleTimerEvENK3$_0clEvEUlvE_EED2Ev.exit.sink.split.i.i", label %"_ZN9grpc_core4LoopIZNS_13ClientChannel14StartIdleTimerEvE3$_0ED2Ev.exit", !prof !26

"_ZN9grpc_core14promise_detail8SeqStateINS0_12TrySeqTraitsENS_5SleepEJZZNS_13ClientChannel14StartIdleTimerEvENK3$_0clEvEUlvE_EED2Ev.exit.sink.split.i.i": ; preds = %17, %11
  %.val1.sink4.i.i = phi ptr [ %.val.i.i, %11 ], [ %.val1.i.i, %17 ]
  %21 = load ptr, ptr %.val1.sink4.i.i, align 8, !tbaa !8
  %22 = getelementptr inbounds nuw i8, ptr %21, i64 8
  %23 = load ptr, ptr %22, align 8
  tail call void %23(ptr noundef nonnull align 8 dereferenceable(16) %.val1.sink4.i.i) #42
  br label %"_ZN9grpc_core4LoopIZNS_13ClientChannel14StartIdleTimerEvE3$_0ED2Ev.exit"

"_ZN9grpc_core4LoopIZNS_13ClientChannel14StartIdleTimerEvE3$_0ED2Ev.exit": ; preds = %"_ZN9grpc_core14promise_detail8SeqStateINS0_12TrySeqTraitsENS_5SleepEJZZNS_13ClientChannel14StartIdleTimerEvENK3$_0clEvEUlvE_EED2Ev.exit.sink.split.i.i", %17, %15, %11, %10, %1
  %.val = load ptr, ptr %0, align 8, !tbaa !10
  %.not.i.i.i = icmp eq ptr %.val, null
  br i1 %.not.i.i.i, label %"_ZN9grpc_core14promise_detail22RepeatedPromiseFactoryIvZNS_13ClientChannel14StartIdleTimerEvE3$_0ED2Ev.exit", label %24

24:                                               ; preds = %"_ZN9grpc_core4LoopIZNS_13ClientChannel14StartIdleTimerEvE3$_0ED2Ev.exit"
  %25 = getelementptr inbounds nuw i8, ptr %.val, i64 8
  %26 = atomicrmw sub ptr %25, i64 1 acq_rel, align 8
  %27 = icmp eq i64 %26, 1
  br i1 %27, label %28, label %"_ZN9grpc_core14promise_detail22RepeatedPromiseFactoryIvZNS_13ClientChannel14StartIdleTimerEvE3$_0ED2Ev.exit", !prof !26

28:                                               ; preds = %24
  %29 = load ptr, ptr %.val, align 8, !tbaa !8
  %30 = getelementptr inbounds nuw i8, ptr %29, i64 8
  %31 = load ptr, ptr %30, align 8
  tail call void %31(ptr noundef nonnull align 8 dereferenceable(16) %.val) #42
  br label %"_ZN9grpc_core14promise_detail22RepeatedPromiseFactoryIvZNS_13ClientChannel14StartIdleTimerEvE3$_0ED2Ev.exit"

"_ZN9grpc_core14promise_detail22RepeatedPromiseFactoryIvZNS_13ClientChannel14StartIdleTimerEvE3$_0ED2Ev.exit": ; preds = %"_ZN9grpc_core4LoopIZNS_13ClientChannel14StartIdleTimerEvE3$_0ED2Ev.exit", %24, %28
  ret void
}